target datalayout = "e-m:e-p270:32:32-p271:32:32-p272:64:64-i64:64-i128:128-f80:128-n8:16:32:64-S128"
target triple = "x86_64-pc-linux-gnu"

; Function Attrs: nounwind uwtable
define internal i32 @GuessDeviceClass(i32 noundef %0) #0 {
  %2 = alloca i32, align 4
  %3 = alloca i32, align 4
  %4 = alloca [1 x i64], align 8
  %5 = alloca [1 x i64], align 8
  %6 = alloca [12 x i64], align 16
  %7 = alloca [1 x i64], align 8
  %8 = alloca [1 x i64], align 8
  %9 = alloca i32, align 4
  store i32 %0, ptr %3, align 4
  call void @llvm.lifetime.start.p0(i64 8, ptr %4) #11
  call void @llvm.memset.p0.i64(ptr align 8 %4, i8 0, i64 8, i1 false)
  call void @llvm.lifetime.start.p0(i64 8, ptr %5) #11
  call void @llvm.memset.p0.i64(ptr align 8 %5, i8 0, i64 8, i1 false)
  call void @llvm.lifetime.start.p0(i64 96, ptr %6) #11
  call void @llvm.memset.p0.i64(ptr align 16 %6, i8 0, i64 96, i1 false)
  call void @llvm.lifetime.start.p0(i64 8, ptr %7) #11
  call void @llvm.memset.p0.i64(ptr align 8 %7, i8 0, i64 8, i1 false)
  call void @llvm.lifetime.start.p0(i64 8, ptr %8) #11
  call void @llvm.memset.p0.i64(ptr align 8 %8, i8 0, i64 8, i1 false)
  %10 = load i32, ptr %3, align 4
  %11 = getelementptr inbounds [1 x i64], ptr %5, i64 0, i64 0
  %12 = call i32 (i32, i64, ...) @ioctl(i32 noundef %10, i64 noundef 2148025632, ptr noundef %11) #11
  %13 = icmp slt i32 %12, 0
  br i1 %13, label %29, label %14

14:                                               ; preds = %1
  %15 = load i32, ptr %3, align 4
  %16 = getelementptr inbounds [12 x i64], ptr %6, i64 0, i64 0
  %17 = call i32 (i32, i64, ...) @ioctl(i32 noundef %15, i64 noundef 2153792801, ptr noundef %16) #11
  %18 = icmp slt i32 %17, 0
  br i1 %18, label %29, label %19

19:                                               ; preds = %14
  %20 = load i32, ptr %3, align 4
  %21 = getelementptr inbounds [1 x i64], ptr %8, i64 0, i64 0
  %22 = call i32 (i32, i64, ...) @ioctl(i32 noundef %20, i64 noundef 2148025634, ptr noundef %21) #11
  %23 = icmp slt i32 %22, 0
  br i1 %23, label %29, label %24

24:                                               ; preds = %19
  %25 = load i32, ptr %3, align 4
  %26 = getelementptr inbounds [1 x i64], ptr %7, i64 0, i64 0
  %27 = call i32 (i32, i64, ...) @ioctl(i32 noundef %25, i64 noundef 2148025635, ptr noundef %26) #11
  %28 = icmp slt i32 %27, 0
  br i1 %28, label %29, label %30

29:                                               ; preds = %24, %19, %14, %1
  store i32 0, ptr %2, align 4
  store i32 1, ptr %9, align 4
  br label %40

30:                                               ; preds = %24
  %31 = load i32, ptr %3, align 4
  %32 = getelementptr inbounds [1 x i64], ptr %4, i64 0, i64 0
  %33 = call i32 (i32, i64, ...) @ioctl(i32 noundef %31, i64 noundef 2148025609, ptr noundef %32) #11
  %34 = getelementptr inbounds [1 x i64], ptr %4, i64 0, i64 0
  %35 = getelementptr inbounds [1 x i64], ptr %5, i64 0, i64 0
  %36 = getelementptr inbounds [1 x i64], ptr %7, i64 0, i64 0
  %37 = getelementptr inbounds [12 x i64], ptr %6, i64 0, i64 0
  %38 = getelementptr inbounds [1 x i64], ptr %8, i64 0, i64 0
  %39 = call i32 @SDL_EVDEV_GuessDeviceClass(ptr noundef %34, ptr noundef %35, ptr noundef %36, ptr noundef %37, ptr noundef %38)
  store i32 %39, ptr %2, align 4
  store i32 1, ptr %9, align 4
  br label %40

40:                                               ; preds = %30, %29
  call void @llvm.lifetime.end.p0(i64 8, ptr %8) #11
  call void @llvm.lifetime.end.p0(i64 8, ptr %7) #11
  call void @llvm.lifetime.end.p0(i64 96, ptr %6) #11
  call void @llvm.lifetime.end.p0(i64 8, ptr %5) #11
  call void @llvm.lifetime.end.p0(i64 8, ptr %4) #11
  %41 = load i32, ptr %2, align 4
  ret i32 %41
}