; Function Attrs: nounwind uwtable
define internal fastcc i32 @GuessDeviceClass(i32 noundef %0) unnamed_addr #0 {
  %2 = alloca [1 x i64], align 8
  %3 = alloca [1 x i64], align 8
  %4 = alloca [12 x i64], align 16
  %5 = alloca [1 x i64], align 8
  %6 = alloca [1 x i64], align 8
  call void @llvm.lifetime.start.p0(i64 8, ptr nonnull %2) #18
  store i64 0, ptr %2, align 8
  call void @llvm.lifetime.start.p0(i64 8, ptr nonnull %3) #18
  store i64 0, ptr %3, align 8
  call void @llvm.lifetime.start.p0(i64 96, ptr nonnull %4) #18
  call void @llvm.memset.p0.i64(ptr noundef nonnull align 16 dereferenceable(96) %4, i8 0, i64 96, i1 false)
  call void @llvm.lifetime.start.p0(i64 8, ptr nonnull %5) #18
  store i64 0, ptr %5, align 8
  call void @llvm.lifetime.start.p0(i64 8, ptr nonnull %6) #18
  store i64 0, ptr %6, align 8
  %7 = call i32 (i32, i64, ...) @ioctl(i32 noundef %0, i64 noundef 2148025632, ptr noundef nonnull %3) #18
  %8 = icmp slt i32 %7, 0
  br i1 %8, label %21, label %9

9:                                                ; preds = %1
  %10 = call i32 (i32, i64, ...) @ioctl(i32 noundef %0, i64 noundef 2153792801, ptr noundef nonnull %4) #18
  %11 = icmp slt i32 %10, 0
  br i1 %11, label %21, label %12

12:                                               ; preds = %9
  %13 = call i32 (i32, i64, ...) @ioctl(i32 noundef %0, i64 noundef 2148025634, ptr noundef nonnull %6) #18
  %14 = icmp slt i32 %13, 0
  br i1 %14, label %21, label %15

15:                                               ; preds = %12
  %16 = call i32 (i32, i64, ...) @ioctl(i32 noundef %0, i64 noundef 2148025635, ptr noundef nonnull %5) #18
  %17 = icmp slt i32 %16, 0
  br i1 %17, label %21, label %18

18:                                               ; preds = %15
  %19 = call i32 (i32, i64, ...) @ioctl(i32 noundef %0, i64 noundef 2148025609, ptr noundef nonnull %2) #18
  %20 = call i32 @SDL_EVDEV_GuessDeviceClass(ptr noundef nonnull %2, ptr noundef nonnull %3, ptr noundef nonnull %5, ptr noundef nonnull %4, ptr noundef nonnull %6) #18
  br label %21

21:                                               ; preds = %1, %9, %12, %15, %18
  %.0 = phi i32 [ %20, %18 ], [ 0, %15 ], [ 0, %12 ], [ 0, %9 ], [ 0, %1 ]
  call void @llvm.lifetime.end.p0(i64 8, ptr nonnull %6) #18
  call void @llvm.lifetime.end.p0(i64 8, ptr nonnull %5) #18
  call void @llvm.lifetime.end.p0(i64 96, ptr nonnull %4) #18
  call void @llvm.lifetime.end.p0(i64 8, ptr nonnull %3) #18
  call void @llvm.lifetime.end.p0(i64 8, ptr nonnull %2) #18
  ret i32 %.0
}